#include <math.h>
#include <stdio.h>
#include <stdlib.h>
#include <string.h>

main()
{int i;
scanf("%d",&i);
while(i!=1)
{if (i%2)
{printf("%d*3+1=%d\n",i,i*3+1);
i=i*3+1;}

else {printf("%d/2=%d\n",i,i/2);
i=i/2;}
}
printf("End\n");
getchar();getchar();getchar();getchar();getchar();getchar();getchar();getchar();getchar();getchar();getchar();getchar();getchar();getchar();getchar();getchar();getchar();getchar();getchar();getchar();getchar();getchar();getchar();getchar();getchar();getchar();getchar();getchar();getchar();getchar();getchar();getchar();getchar();getchar();getchar();getchar();getchar();getchar();getchar();getchar();getchar();getchar();getchar();getchar();getchar();getchar();getchar();getchar();getchar();getchar();getchar();getchar();getchar();getchar();getchar();getchar();getchar();
}
