; ModuleID = '34/3071.c'
source_filename = "34/3071.c"
target datalayout = "e-m:e-p270:32:32-p271:32:32-p272:64:64-i64:64-f80:128-n8:16:32:64-S128"
target triple = "x86_64-pc-linux-gnu"

@.str = private unnamed_addr constant [3 x i8] c"%d\00", align 1
@.str.1 = private unnamed_addr constant [11 x i8] c"%d*3+1=%d\0A\00", align 1
@.str.2 = private unnamed_addr constant [9 x i8] c"%d/2=%d\0A\00", align 1
@.str.3 = private unnamed_addr constant [5 x i8] c"End\0A\00", align 1

; Function Attrs: noinline nounwind uwtable
define dso_local i32 @main() #0 {
  %1 = alloca i32, align 4
  %2 = alloca i32, align 4
  store i32 0, i32* %1, align 4
  %3 = call i32 (i8*, ...) @__isoc99_scanf(i8* getelementptr inbounds ([3 x i8], [3 x i8]* @.str, i64 0, i64 0), i32* %2)
  br label %4

4:                                                ; preds = %27, %0
  %5 = load i32, i32* %2, align 4
  %6 = icmp ne i32 %5, 1
  br i1 %6, label %7, label %28

7:                                                ; preds = %4
  %8 = load i32, i32* %2, align 4
  %9 = srem i32 %8, 2
  %10 = icmp ne i32 %9, 0
  br i1 %10, label %11, label %20

11:                                               ; preds = %7
  %12 = load i32, i32* %2, align 4
  %13 = load i32, i32* %2, align 4
  %14 = mul nsw i32 %13, 3
  %15 = add nsw i32 %14, 1
  %16 = call i32 (i8*, ...) @printf(i8* getelementptr inbounds ([11 x i8], [11 x i8]* @.str.1, i64 0, i64 0), i32 %12, i32 %15)
  %17 = load i32, i32* %2, align 4
  %18 = mul nsw i32 %17, 3
  %19 = add nsw i32 %18, 1
  store i32 %19, i32* %2, align 4
  br label %27

20:                                               ; preds = %7
  %21 = load i32, i32* %2, align 4
  %22 = load i32, i32* %2, align 4
  %23 = sdiv i32 %22, 2
  %24 = call i32 (i8*, ...) @printf(i8* getelementptr inbounds ([9 x i8], [9 x i8]* @.str.2, i64 0, i64 0), i32 %21, i32 %23)
  %25 = load i32, i32* %2, align 4
  %26 = sdiv i32 %25, 2
  store i32 %26, i32* %2, align 4
  br label %27

27:                                               ; preds = %20, %11
  br label %4

28:                                               ; preds = %4
  %29 = call i32 (i8*, ...) @printf(i8* getelementptr inbounds ([5 x i8], [5 x i8]* @.str.3, i64 0, i64 0))
  %30 = call i32 @getchar()
  %31 = call i32 @getchar()
  %32 = call i32 @getchar()
  %33 = call i32 @getchar()
  %34 = call i32 @getchar()
  %35 = call i32 @getchar()
  %36 = call i32 @getchar()
  %37 = call i32 @getchar()
  %38 = call i32 @getchar()
  %39 = call i32 @getchar()
  %40 = call i32 @getchar()
  %41 = call i32 @getchar()
  %42 = call i32 @getchar()
  %43 = call i32 @getchar()
  %44 = call i32 @getchar()
  %45 = call i32 @getchar()
  %46 = call i32 @getchar()
  %47 = call i32 @getchar()
  %48 = call i32 @getchar()
  %49 = call i32 @getchar()
  %50 = call i32 @getchar()
  %51 = call i32 @getchar()
  %52 = call i32 @getchar()
  %53 = call i32 @getchar()
  %54 = call i32 @getchar()
  %55 = call i32 @getchar()
  %56 = call i32 @getchar()
  %57 = call i32 @getchar()
  %58 = call i32 @getchar()
  %59 = call i32 @getchar()
  %60 = call i32 @getchar()
  %61 = call i32 @getchar()
  %62 = call i32 @getchar()
  %63 = call i32 @getchar()
  %64 = call i32 @getchar()
  %65 = call i32 @getchar()
  %66 = call i32 @getchar()
  %67 = call i32 @getchar()
  %68 = call i32 @getchar()
  %69 = call i32 @getchar()
  %70 = call i32 @getchar()
  %71 = call i32 @getchar()
  %72 = call i32 @getchar()
  %73 = call i32 @getchar()
  %74 = call i32 @getchar()
  %75 = call i32 @getchar()
  %76 = call i32 @getchar()
  %77 = call i32 @getchar()
  %78 = call i32 @getchar()
  %79 = call i32 @getchar()
  %80 = call i32 @getchar()
  %81 = call i32 @getchar()
  %82 = call i32 @getchar()
  %83 = call i32 @getchar()
  %84 = call i32 @getchar()
  %85 = call i32 @getchar()
  %86 = call i32 @getchar()
  %87 = load i32, i32* %1, align 4
  ret i32 %87
}

declare dso_local i32 @__isoc99_scanf(i8*, ...) #1

declare dso_local i32 @printf(i8*, ...) #1

declare dso_local i32 @getchar() #1


!llvm.module.flags = !{!0}
!llvm.ident = !{!1}

!0 = !{i32 1, !"wchar_size", i32 4}
!1 = !{!"clang version 10.0.0-4ubuntu1 "}
